target datalayout = "e-m:e-p270:32:32-p271:32:32-p272:64:64-i64:64-i128:128-f80:128-n8:16:32:64-S128"
target triple = "x86_64-pc-linux-gnu"

%struct.slurmdb_tres_rec_t = type { i64, i32, i64, i32, ptr, ptr }

@.str.11 = private unnamed_addr constant [1 x i8] zeroinitializer, align 1
@.str.13 = private unnamed_addr constant [2 x i8] c",\00", align 1
@.str.152 = private unnamed_addr constant [7 x i8] c"%u=%lu\00", align 1
@.str.155 = private unnamed_addr constant [2 x i8] c"/\00", align 1
@.str.166 = private unnamed_addr constant [3 x i8] c"bb\00", align 1
@.str.167 = private unnamed_addr constant [29 x i8] c"%s: cannot convert %s to ID.\00", align 1
@__func__.slurmdb_format_tres_str = private unnamed_addr constant [24 x i8] c"slurmdb_format_tres_str\00", align 1
@.str.168 = private unnamed_addr constant [27 x i8] c"%s: no TRES known by id %d\00", align 1
@.str.169 = private unnamed_addr constant [28 x i8] c"%s: no TRES id found for %s\00", align 1
@.str.170 = private unnamed_addr constant [29 x i8] c"%s: no TRES known by type %s\00", align 1
@.str.171 = private unnamed_addr constant [36 x i8] c"%s: no value given as TRES type/id.\00", align 1
@.str.172 = private unnamed_addr constant [11 x i8] c"%s%s%s=%lu\00", align 1
@.str.182 = private unnamed_addr constant [4 x i8] c"mem\00", align 1

; Function Attrs: nounwind uwtable
define dso_local i32 @slurmdb_get_tres_base_unit(ptr noundef %0) #0 {
  %2 = alloca ptr, align 8
  %3 = alloca i32, align 4
  store ptr %0, ptr %2, align 8
  call void @llvm.lifetime.start.p0(i64 4, ptr %3) #10
  store i32 0, ptr %3, align 4
  %4 = load ptr, ptr %2, align 8
  %5 = call i32 @xstrcasecmp(ptr noundef %4, ptr noundef @.str.182)
  %6 = icmp ne i32 %5, 0
  br i1 %6, label %7, label %11

7:                                                ; preds = %1
  %8 = load ptr, ptr %2, align 8
  %9 = call i32 @xstrcasecmp(ptr noundef %8, ptr noundef @.str.166)
  %10 = icmp ne i32 %9, 0
  br i1 %10, label %12, label %11

11:                                               ; preds = %7, %1
  store i32 2, ptr %3, align 4
  br label %12

12:                                               ; preds = %11, %7
  %13 = load i32, ptr %3, align 4
  call void @llvm.lifetime.end.p0(i64 4, ptr %3) #10
  ret i32 %13
}

; Function Attrs: inlinehint nounwind willreturn memory(read) uwtable
define available_externally i32 @atoi(ptr noundef nonnull %0) #8 {
  %2 = alloca ptr, align 8
  store ptr %0, ptr %2, align 8
  %3 = load ptr, ptr %2, align 8
  %4 = call i64 @strtol(ptr noundef %3, ptr noundef null, i32 noundef 10) #10
  %5 = trunc i64 %4 to i32
  ret i32 %5
}

; Function Attrs: nounwind uwtable
define dso_local ptr @slurmdb_format_tres_str(ptr noundef %0, ptr noundef %1, i1 noundef zeroext %2) #0 {
  %4 = alloca ptr, align 8
  %5 = alloca ptr, align 8
  %6 = alloca ptr, align 8
  %7 = alloca i8, align 1
  %8 = alloca ptr, align 8
  %9 = alloca ptr, align 8
  %10 = alloca ptr, align 8
  %11 = alloca i64, align 8
  %12 = alloca ptr, align 8
  %13 = alloca i32, align 4
  %14 = alloca i32, align 4
  %15 = alloca i32, align 4
  %16 = alloca ptr, align 8
  %17 = alloca i32, align 4
  %18 = alloca i32, align 4
  store ptr %0, ptr %5, align 8
  store ptr %1, ptr %6, align 8
  %19 = zext i1 %2 to i8
  store i8 %19, ptr %7, align 1
  call void @llvm.lifetime.start.p0(i64 8, ptr %8) #10
  store ptr null, ptr %8, align 8
  call void @llvm.lifetime.start.p0(i64 8, ptr %9) #10
  store ptr null, ptr %9, align 8
  call void @llvm.lifetime.start.p0(i64 8, ptr %10) #10
  %20 = load ptr, ptr %5, align 8
  store ptr %20, ptr %10, align 8
  call void @llvm.lifetime.start.p0(i64 8, ptr %11) #10
  call void @llvm.lifetime.start.p0(i64 8, ptr %12) #10
  %21 = load ptr, ptr %6, align 8
  %22 = icmp ne ptr %21, null
  br i1 %22, label %23, label %31

23:                                               ; preds = %3
  %24 = load ptr, ptr %10, align 8
  %25 = icmp ne ptr %24, null
  br i1 %25, label %26, label %31

26:                                               ; preds = %23
  %27 = load ptr, ptr %10, align 8
  %28 = getelementptr inbounds i8, ptr %27, i64 0
  %29 = load i8, ptr %28, align 1
  %30 = icmp ne i8 %29, 0
  br i1 %30, label %33, label %31

31:                                               ; preds = %26, %23, %3
  %32 = load ptr, ptr %8, align 8
  store ptr %32, ptr %4, align 8
  store i32 1, ptr %13, align 4
  br label %215

33:                                               ; preds = %26
  %34 = load ptr, ptr %10, align 8
  %35 = getelementptr inbounds i8, ptr %34, i64 0
  %36 = load i8, ptr %35, align 1
  %37 = sext i8 %36 to i32
  %38 = icmp eq i32 %37, 44
  br i1 %38, label %39, label %42

39:                                               ; preds = %33
  %40 = load ptr, ptr %10, align 8
  %41 = getelementptr inbounds nuw i8, ptr %40, i32 1
  store ptr %41, ptr %10, align 8
  br label %42

42:                                               ; preds = %39, %33
  br label %43

43:                                               ; preds = %210, %42
  %44 = load ptr, ptr %10, align 8
  %45 = icmp ne ptr %44, null
  br i1 %45, label %46, label %213

46:                                               ; preds = %43
  %47 = load ptr, ptr %10, align 8
  %48 = getelementptr inbounds i8, ptr %47, i64 0
  %49 = load i8, ptr %48, align 1
  %50 = sext i8 %49 to i32
  %51 = icmp sge i32 %50, 48
  br i1 %51, label %52, label %77

52:                                               ; preds = %46
  %53 = load ptr, ptr %10, align 8
  %54 = getelementptr inbounds i8, ptr %53, i64 0
  %55 = load i8, ptr %54, align 1
  %56 = sext i8 %55 to i32
  %57 = icmp sle i32 %56, 57
  br i1 %57, label %58, label %77

58:                                               ; preds = %52
  call void @llvm.lifetime.start.p0(i64 4, ptr %14) #10
  %59 = load ptr, ptr %10, align 8
  %60 = call i32 @atoi(ptr noundef %59) #11
  store i32 %60, ptr %14, align 4
  %61 = load i32, ptr %14, align 4
  %62 = icmp sle i32 %61, 0
  br i1 %62, label %63, label %66

63:                                               ; preds = %58
  %64 = load ptr, ptr %10, align 8
  %65 = call i32 (ptr, ...) @error(ptr noundef @.str.167, ptr noundef @__func__.slurmdb_format_tres_str, ptr noundef %64)
  store ptr null, ptr %4, align 8
  store i32 1, ptr %13, align 4
  br label %74

66:                                               ; preds = %58
  %67 = load ptr, ptr %6, align 8
  %68 = call ptr @list_find_first(ptr noundef %67, ptr noundef @slurmdb_find_tres_in_list, ptr noundef %14)
  store ptr %68, ptr %12, align 8
  %69 = icmp ne ptr %68, null
  br i1 %69, label %73, label %70

70:                                               ; preds = %66
  %71 = load i32, ptr %14, align 4
  %72 = call i32 (ptr, ...) @error(ptr noundef @.str.168, ptr noundef @__func__.slurmdb_format_tres_str, i32 noundef %71)
  store ptr null, ptr %4, align 8
  store i32 1, ptr %13, align 4
  br label %74

73:                                               ; preds = %66
  store i32 0, ptr %13, align 4
  br label %74

74:                                               ; preds = %73, %70, %63
  call void @llvm.lifetime.end.p0(i64 4, ptr %14) #10
  %75 = load i32, ptr %13, align 4
  switch i32 %75, label %215 [
    i32 0, label %76
  ]

76:                                               ; preds = %74
  br label %123

77:                                               ; preds = %52, %46
  call void @llvm.lifetime.start.p0(i64 4, ptr %15) #10
  store i32 0, ptr %15, align 4
  call void @llvm.lifetime.start.p0(i64 8, ptr %16) #10
  br label %78

78:                                               ; preds = %94, %77
  %79 = load ptr, ptr %10, align 8
  %80 = load i32, ptr %15, align 4
  %81 = sext i32 %80 to i64
  %82 = getelementptr inbounds i8, ptr %79, i64 %81
  %83 = load i8, ptr %82, align 1
  %84 = icmp ne i8 %83, 0
  br i1 %84, label %85, label %97

85:                                               ; preds = %78
  %86 = load ptr, ptr %10, align 8
  %87 = load i32, ptr %15, align 4
  %88 = sext i32 %87 to i64
  %89 = getelementptr inbounds i8, ptr %86, i64 %88
  %90 = load i8, ptr %89, align 1
  %91 = sext i8 %90 to i32
  %92 = icmp eq i32 %91, 61
  br i1 %92, label %93, label %94

93:                                               ; preds = %85
  br label %97

94:                                               ; preds = %85
  %95 = load i32, ptr %15, align 4
  %96 = add nsw i32 %95, 1
  store i32 %96, ptr %15, align 4
  br label %78, !llvm.loop !54

97:                                               ; preds = %93, %78
  %98 = load ptr, ptr %10, align 8
  %99 = load i32, ptr %15, align 4
  %100 = sext i32 %99 to i64
  %101 = getelementptr inbounds i8, ptr %98, i64 %100
  %102 = load i8, ptr %101, align 1
  %103 = icmp ne i8 %102, 0
  br i1 %103, label %107, label %104

104:                                              ; preds = %97
  %105 = load ptr, ptr %10, align 8
  %106 = call i32 (ptr, ...) @error(ptr noundef @.str.169, ptr noundef @__func__.slurmdb_format_tres_str, ptr noundef %105)
  store ptr null, ptr %4, align 8
  store i32 1, ptr %13, align 4
  br label %120

107:                                              ; preds = %97
  %108 = load ptr, ptr %10, align 8
  %109 = load i32, ptr %15, align 4
  %110 = sext i32 %109 to i64
  %111 = call ptr @xstrndup(ptr noundef %108, i64 noundef %110)
  store ptr %111, ptr %16, align 8
  %112 = load ptr, ptr %6, align 8
  %113 = load ptr, ptr %16, align 8
  %114 = call ptr @list_find_first(ptr noundef %112, ptr noundef @slurmdb_find_tres_in_list_by_type, ptr noundef %113)
  store ptr %114, ptr %12, align 8
  %115 = icmp ne ptr %114, null
  br i1 %115, label %119, label %116

116:                                              ; preds = %107
  %117 = load ptr, ptr %16, align 8
  %118 = call i32 (ptr, ...) @error(ptr noundef @.str.170, ptr noundef @__func__.slurmdb_format_tres_str, ptr noundef %117)
  call void @slurm_xfree(ptr noundef %16)
  store ptr null, ptr %4, align 8
  store i32 1, ptr %13, align 4
  br label %120

119:                                              ; preds = %107
  call void @slurm_xfree(ptr noundef %16)
  store i32 0, ptr %13, align 4
  br label %120

120:                                              ; preds = %119, %116, %104
  call void @llvm.lifetime.end.p0(i64 8, ptr %16) #10
  call void @llvm.lifetime.end.p0(i64 4, ptr %15) #10
  %121 = load i32, ptr %13, align 4
  switch i32 %121, label %215 [
    i32 0, label %122
  ]

122:                                              ; preds = %120
  br label %123

123:                                              ; preds = %122, %76
  %124 = load ptr, ptr %10, align 8
  %125 = call ptr @strchr(ptr noundef %124, i32 noundef 61) #11
  store ptr %125, ptr %10, align 8
  %126 = icmp ne ptr %125, null
  br i1 %126, label %129, label %127

127:                                              ; preds = %123
  %128 = call i32 (ptr, ...) @error(ptr noundef @.str.171, ptr noundef @__func__.slurmdb_format_tres_str)
  store ptr null, ptr %4, align 8
  store i32 1, ptr %13, align 4
  br label %215

129:                                              ; preds = %123
  %130 = load ptr, ptr %10, align 8
  %131 = getelementptr inbounds nuw i8, ptr %130, i32 1
  store ptr %131, ptr %10, align 8
  %132 = call i64 @strtoull(ptr noundef %131, ptr noundef %9, i32 noundef 10) #10
  store i64 %132, ptr %11, align 8
  %133 = load ptr, ptr %9, align 8
  %134 = icmp ne ptr %133, null
  br i1 %134, label %135, label %167

135:                                              ; preds = %129
  %136 = load ptr, ptr %9, align 8
  %137 = load i8, ptr %136, align 1
  %138 = sext i8 %137 to i32
  %139 = icmp ne i32 %138, 44
  br i1 %139, label %140, label %167

140:                                              ; preds = %135
  %141 = load ptr, ptr %9, align 8
  %142 = load i8, ptr %141, align 1
  %143 = sext i8 %142 to i32
  %144 = icmp ne i32 %143, 0
  br i1 %144, label %145, label %167

145:                                              ; preds = %140
  %146 = load ptr, ptr %12, align 8
  %147 = getelementptr inbounds nuw %struct.slurmdb_tres_rec_t, ptr %146, i32 0, i32 5
  %148 = load ptr, ptr %147, align 8
  %149 = icmp ne ptr %148, null
  br i1 %149, label %150, label %167

150:                                              ; preds = %145
  call void @llvm.lifetime.start.p0(i64 4, ptr %17) #10
  %151 = load ptr, ptr %12, align 8
  %152 = getelementptr inbounds nuw %struct.slurmdb_tres_rec_t, ptr %151, i32 0, i32 5
  %153 = load ptr, ptr %152, align 8
  %154 = call i32 @slurmdb_get_tres_base_unit(ptr noundef %153)
  store i32 %154, ptr %17, align 4
  call void @llvm.lifetime.start.p0(i64 4, ptr %18) #10
  %155 = load i32, ptr %17, align 4
  %156 = load ptr, ptr %9, align 8
  %157 = load i8, ptr %156, align 1
  %158 = call i32 @get_convert_unit_val(i32 noundef %155, i8 noundef signext %157)
  store i32 %158, ptr %18, align 4
  %159 = load i32, ptr %18, align 4
  %160 = icmp sgt i32 %159, 0
  br i1 %160, label %161, label %166

161:                                              ; preds = %150
  %162 = load i32, ptr %18, align 4
  %163 = sext i32 %162 to i64
  %164 = load i64, ptr %11, align 8
  %165 = mul i64 %164, %163
  store i64 %165, ptr %11, align 8
  br label %166

166:                                              ; preds = %161, %150
  call void @llvm.lifetime.end.p0(i64 4, ptr %18) #10
  call void @llvm.lifetime.end.p0(i64 4, ptr %17) #10
  br label %167

167:                                              ; preds = %166, %145, %140, %135, %129
  %168 = load ptr, ptr %8, align 8
  %169 = icmp ne ptr %168, null
  br i1 %169, label %170, label %171

170:                                              ; preds = %167
  call void @_xstrcat(ptr noundef %8, ptr noundef @.str.13)
  br label %171

171:                                              ; preds = %170, %167
  %172 = load i8, ptr %7, align 1, !range !12, !noundef !13
  %173 = trunc i8 %172 to i1
  br i1 %173, label %179, label %174

174:                                              ; preds = %171
  %175 = load ptr, ptr %12, align 8
  %176 = getelementptr inbounds nuw %struct.slurmdb_tres_rec_t, ptr %175, i32 0, i32 5
  %177 = load ptr, ptr %176, align 8
  %178 = icmp ne ptr %177, null
  br i1 %178, label %184, label %179

179:                                              ; preds = %174, %171
  %180 = load ptr, ptr %12, align 8
  %181 = getelementptr inbounds nuw %struct.slurmdb_tres_rec_t, ptr %180, i32 0, i32 3
  %182 = load i32, ptr %181, align 8
  %183 = load i64, ptr %11, align 8
  call void (ptr, ptr, ...) @_xstrfmtcat(ptr noundef %8, ptr noundef @.str.152, i32 noundef %182, i64 noundef %183)
  br label %205

184:                                              ; preds = %174
  %185 = load ptr, ptr %12, align 8
  %186 = getelementptr inbounds nuw %struct.slurmdb_tres_rec_t, ptr %185, i32 0, i32 5
  %187 = load ptr, ptr %186, align 8
  %188 = load ptr, ptr %12, align 8
  %189 = getelementptr inbounds nuw %struct.slurmdb_tres_rec_t, ptr %188, i32 0, i32 4
  %190 = load ptr, ptr %189, align 8
  %191 = icmp ne ptr %190, null
  %192 = select i1 %191, ptr @.str.155, ptr @.str.11
  %193 = load ptr, ptr %12, align 8
  %194 = getelementptr inbounds nuw %struct.slurmdb_tres_rec_t, ptr %193, i32 0, i32 4
  %195 = load ptr, ptr %194, align 8
  %196 = icmp ne ptr %195, null
  br i1 %196, label %197, label %201

197:                                              ; preds = %184
  %198 = load ptr, ptr %12, align 8
  %199 = getelementptr inbounds nuw %struct.slurmdb_tres_rec_t, ptr %198, i32 0, i32 4
  %200 = load ptr, ptr %199, align 8
  br label %202

201:                                              ; preds = %184
  br label %202

202:                                              ; preds = %201, %197
  %203 = phi ptr [ %200, %197 ], [ @.str.11, %201 ]
  %204 = load i64, ptr %11, align 8
  call void (ptr, ptr, ...) @_xstrfmtcat(ptr noundef %8, ptr noundef @.str.172, ptr noundef %187, ptr noundef %192, ptr noundef %203, i64 noundef %204)
  br label %205

205:                                              ; preds = %202, %179
  %206 = load ptr, ptr %10, align 8
  %207 = call ptr @strchr(ptr noundef %206, i32 noundef 44) #11
  store ptr %207, ptr %10, align 8
  %208 = icmp ne ptr %207, null
  br i1 %208, label %210, label %209

209:                                              ; preds = %205
  br label %213

210:                                              ; preds = %205
  %211 = load ptr, ptr %10, align 8
  %212 = getelementptr inbounds nuw i8, ptr %211, i32 1
  store ptr %212, ptr %10, align 8
  br label %43, !llvm.loop !55

213:                                              ; preds = %209, %43
  %214 = load ptr, ptr %8, align 8
  store ptr %214, ptr %4, align 8
  store i32 1, ptr %13, align 4
  br label %215

215:                                              ; preds = %213, %127, %120, %74, %31
  call void @llvm.lifetime.end.p0(i64 8, ptr %12) #10
  call void @llvm.lifetime.end.p0(i64 8, ptr %11) #10
  call void @llvm.lifetime.end.p0(i64 8, ptr %10) #10
  call void @llvm.lifetime.end.p0(i64 8, ptr %9) #10
  call void @llvm.lifetime.end.p0(i64 8, ptr %8) #10
  %216 = load ptr, ptr %4, align 8
  ret ptr %216
}