; Function Attrs: nounwind uwtable
define dso_local ptr @slurmdb_format_tres_str(ptr noundef %0, ptr noundef %1, i1 noundef zeroext %2) local_unnamed_addr #0 {
  %4 = alloca ptr, align 8
  %5 = alloca ptr, align 8
  %6 = alloca i32, align 4
  %7 = alloca ptr, align 8
  call void @llvm.lifetime.start.p0(i64 8, ptr nonnull %4) #19
  store ptr null, ptr %4, align 8
  call void @llvm.lifetime.start.p0(i64 8, ptr nonnull %5) #19
  store ptr null, ptr %5, align 8
  %8 = icmp ne ptr %1, null
  %9 = icmp ne ptr %0, null
  %or.cond = and i1 %9, %8
  br i1 %or.cond, label %10, label %82

10:                                               ; preds = %3
  %11 = load i8, ptr %0, align 1
  switch i8 %11, label %.preheader [
    i8 0, label %82
    i8 44, label %12
  ]

12:                                               ; preds = %10
  %13 = getelementptr inbounds nuw i8, ptr %0, i64 1
  br label %.preheader

.preheader:                                       ; preds = %10, %12
  %.147.ph = phi ptr [ %0, %10 ], [ %13, %12 ]
  br label %14

14:                                               ; preds = %.preheader, %77
  %.147 = phi ptr [ %79, %77 ], [ %.147.ph, %.preheader ]
  %15 = load i8, ptr %.147, align 1
  %16 = add i8 %15, -48
  %or.cond87 = icmp ult i8 %16, 10
  br i1 %or.cond87, label %17, label %29

17:                                               ; preds = %14
  call void @llvm.lifetime.start.p0(i64 4, ptr nonnull %6) #19
  %18 = call i64 @strtol(ptr noundef nonnull captures(none) %.147, ptr noundef null, i32 noundef 10) #19
  %19 = trunc i64 %18 to i32
  store i32 %19, ptr %6, align 4
  %20 = icmp slt i32 %19, 1
  br i1 %20, label %21, label %23

21:                                               ; preds = %17
  %22 = call i32 (ptr, ...) @error(ptr noundef nonnull @.str.167, ptr noundef nonnull @__func__.slurmdb_format_tres_str, ptr noundef nonnull %.147) #19
  br label %.thread

23:                                               ; preds = %17
  %24 = call ptr @list_find_first(ptr noundef nonnull %1, ptr noundef nonnull @slurmdb_find_tres_in_list, ptr noundef nonnull %6) #19
  %.not77 = icmp eq ptr %24, null
  br i1 %.not77, label %25, label %28

25:                                               ; preds = %23
  %26 = load i32, ptr %6, align 4
  %27 = call i32 (ptr, ...) @error(ptr noundef nonnull @.str.168, ptr noundef nonnull @__func__.slurmdb_format_tres_str, i32 noundef %26) #19
  br label %.thread

.thread:                                          ; preds = %21, %25
  call void @llvm.lifetime.end.p0(i64 4, ptr nonnull %6) #19
  br label %82

28:                                               ; preds = %23
  call void @llvm.lifetime.end.p0(i64 4, ptr nonnull %6) #19
  br label %42

29:                                               ; preds = %14
  call void @llvm.lifetime.start.p0(i64 8, ptr nonnull %7) #19
  br label %30

30:                                               ; preds = %32, %29
  %31 = phi i8 [ %.pre, %32 ], [ %15, %29 ]
  %indvars.iv = phi i64 [ %indvars.iv.next, %32 ], [ 0, %29 ]
  switch i8 %31, label %32 [
    i8 0, label %33
    i8 61, label %35
  ]

32:                                               ; preds = %30
  %indvars.iv.next = add nuw nsw i64 %indvars.iv, 1
  %.phi.trans.insert = getelementptr inbounds nuw i8, ptr %.147, i64 %indvars.iv.next
  %.pre = load i8, ptr %.phi.trans.insert, align 1
  br label %30, !llvm.loop !54

33:                                               ; preds = %30
  %34 = call i32 (ptr, ...) @error(ptr noundef nonnull @.str.169, ptr noundef nonnull @__func__.slurmdb_format_tres_str, ptr noundef nonnull %.147) #19
  br label %.thread91

35:                                               ; preds = %30
  %36 = call ptr @xstrndup(ptr noundef nonnull %.147, i64 noundef %indvars.iv) #19
  store ptr %36, ptr %7, align 8
  %37 = call ptr @list_find_first(ptr noundef nonnull %1, ptr noundef nonnull @slurmdb_find_tres_in_list_by_type, ptr noundef %36) #19
  %.not76 = icmp eq ptr %37, null
  br i1 %.not76, label %38, label %41

38:                                               ; preds = %35
  %39 = load ptr, ptr %7, align 8
  %40 = call i32 (ptr, ...) @error(ptr noundef nonnull @.str.170, ptr noundef nonnull @__func__.slurmdb_format_tres_str, ptr noundef %39) #19
  call void @slurm_xfree(ptr noundef nonnull %7) #19
  br label %.thread91

.thread91:                                        ; preds = %38, %33
  call void @llvm.lifetime.end.p0(i64 8, ptr nonnull %7) #19
  br label %82

41:                                               ; preds = %35
  call void @slurm_xfree(ptr noundef nonnull %7) #19
  call void @llvm.lifetime.end.p0(i64 8, ptr nonnull %7) #19
  br label %42

42:                                               ; preds = %41, %28
  %.253 = phi ptr [ %24, %28 ], [ %37, %41 ]
  %43 = call ptr @strchr(ptr noundef nonnull dereferenceable(1) %.147, i32 noundef 61) #20
  %.not78 = icmp eq ptr %43, null
  br i1 %.not78, label %44, label %46

44:                                               ; preds = %42
  %45 = call i32 (ptr, ...) @error(ptr noundef nonnull @.str.171, ptr noundef nonnull @__func__.slurmdb_format_tres_str) #19
  br label %82

46:                                               ; preds = %42
  %47 = getelementptr inbounds nuw i8, ptr %43, i64 1
  %48 = call i64 @strtoull(ptr noundef nonnull %47, ptr noundef nonnull %5, i32 noundef 10) #19
  %49 = load ptr, ptr %5, align 8
  %.not79 = icmp eq ptr %49, null
  br i1 %.not79, label %63, label %50

50:                                               ; preds = %46
  %51 = load i8, ptr %49, align 1
  switch i8 %51, label %52 [
    i8 44, label %63
    i8 0, label %63
  ]

52:                                               ; preds = %50
  %53 = getelementptr inbounds nuw i8, ptr %.253, i64 40
  %54 = load ptr, ptr %53, align 8
  %.not82 = icmp eq ptr %54, null
  br i1 %.not82, label %63, label %55

55:                                               ; preds = %52
  %56 = call i32 @xstrcasecmp(ptr noundef nonnull %54, ptr noundef nonnull @.str.182) #19
  %.not.i = icmp eq i32 %56, 0
  br i1 %.not.i, label %59, label %57

57:                                               ; preds = %55
  %58 = call i32 @xstrcasecmp(ptr noundef nonnull %54, ptr noundef nonnull @.str.166) #19
  %.not2.i = icmp eq i32 %58, 0
  br i1 %.not2.i, label %59, label %slurmdb_get_tres_base_unit.exit

59:                                               ; preds = %57, %55
  br label %slurmdb_get_tres_base_unit.exit

slurmdb_get_tres_base_unit.exit:                  ; preds = %57, %59
  %.0.i = phi i32 [ 0, %57 ], [ 2, %59 ]
  %60 = load i8, ptr %49, align 1
  %61 = call i32 @get_convert_unit_val(i32 noundef %.0.i, i8 noundef signext %60) #19
  %narrow = call i32 @llvm.smax.i32(i32 %61, i32 1)
  %62 = zext nneg i32 %narrow to i64
  %.156 = mul i64 %48, %62
  br label %63

63:                                               ; preds = %50, %50, %slurmdb_get_tres_base_unit.exit, %52, %46
  %.055 = phi i64 [ %.156, %slurmdb_get_tres_base_unit.exit ], [ %48, %52 ], [ %48, %50 ], [ %48, %46 ], [ %48, %50 ]
  %64 = load ptr, ptr %4, align 8
  %.not83 = icmp eq ptr %64, null
  br i1 %.not83, label %66, label %65

65:                                               ; preds = %63
  call void @_xstrcat(ptr noundef nonnull %4, ptr noundef nonnull @.str.13) #19
  br label %66

66:                                               ; preds = %65, %63
  br i1 %2, label %70, label %67

67:                                               ; preds = %66
  %68 = getelementptr inbounds nuw i8, ptr %.253, i64 40
  %69 = load ptr, ptr %68, align 8
  %.not84 = icmp eq ptr %69, null
  br i1 %.not84, label %70, label %73

70:                                               ; preds = %67, %66
  %71 = getelementptr inbounds nuw i8, ptr %.253, i64 24
  %72 = load i32, ptr %71, align 8
  call void (ptr, ptr, ...) @_xstrfmtcat(ptr noundef nonnull %4, ptr noundef nonnull @.str.152, i32 noundef %72, i64 noundef %.055) #19
  br label %77

73:                                               ; preds = %67
  %74 = getelementptr inbounds nuw i8, ptr %.253, i64 32
  %75 = load ptr, ptr %74, align 8
  %.not85 = icmp eq ptr %75, null
  %76 = select i1 %.not85, ptr @.str.11, ptr @.str.155
  %spec.select = select i1 %.not85, ptr @.str.11, ptr %75
  call void (ptr, ptr, ...) @_xstrfmtcat(ptr noundef nonnull %4, ptr noundef nonnull @.str.172, ptr noundef nonnull %69, ptr noundef nonnull %76, ptr noundef nonnull %spec.select, i64 noundef %.055) #19
  br label %77

77:                                               ; preds = %73, %70
  %78 = call ptr @strchr(ptr noundef nonnull dereferenceable(1) %47, i32 noundef 44) #20
  %.not86 = icmp eq ptr %78, null
  %79 = getelementptr inbounds nuw i8, ptr %78, i64 1
  br i1 %.not86, label %80, label %14, !llvm.loop !55

80:                                               ; preds = %77
  %81 = load ptr, ptr %4, align 8
  br label %82

82:                                               ; preds = %.thread91, %.thread, %3, %10, %80, %44
  %.0 = phi ptr [ %81, %80 ], [ null, %44 ], [ null, %10 ], [ null, %3 ], [ null, %.thread ], [ null, %.thread91 ]
  call void @llvm.lifetime.end.p0(i64 8, ptr nonnull %5) #19
  call void @llvm.lifetime.end.p0(i64 8, ptr nonnull %4) #19
  ret ptr %.0
}